(S'{"states":[{"id":1.0,"n":10000,"mean":1.99856480972,"std":0.10084803888,"sum":19985.6480972,"sqsum":40044.316256,"prior":0.5},{"id":2.0,"n":10000,"mean":2.99972329596,"std":0.0999268634886,"sum":29997.2329596,"sqsum":90083.2523039,"prior":0.5}]}\r\n'
p0
(lp1
S'{b}/{a}'
p2
a(dp3
tp4
.